; Function Attrs: mustprogress nounwind uwtable
define internal fastcc noundef zeroext i1 @_ZN12_GLOBAL__N_123ZeroOutInDeallocRemover17isZeroingPropIvarEPN5clang4ExprE(ptr nocapture noundef nonnull readonly align 8 dereferenceable(72) %0, ptr noundef nonnull readonly %1) unnamed_addr #0 align 2 {
  %3 = tail call noundef ptr @_ZN5clang4Expr12IgnoreParensEv(ptr noundef nonnull align 8 dereferenceable(16) %1) #21
  %4 = load i8, ptr %3, align 8
  %5 = and i8 %4, -2
  %spec.select.i.i.i.i.i.i.i.i.not = icmp eq i8 %5, 118
  br i1 %spec.select.i.i.i.i.i.i.i.i.not, label %6, label %8

6:                                                ; preds = %2
  %7 = tail call fastcc noundef zeroext i1 @_ZN12_GLOBAL__N_123ZeroOutInDeallocRemover17isZeroingPropIvarEPN5clang14BinaryOperatorE(ptr noundef nonnull align 8 dereferenceable(72) %0, ptr noundef nonnull %3)
  br label %11

8:                                                ; preds = %2
  %.not = icmp eq i8 %4, 18
  br i1 %.not, label %9, label %11

9:                                                ; preds = %8
  %10 = tail call fastcc noundef zeroext i1 @_ZN12_GLOBAL__N_123ZeroOutInDeallocRemover17isZeroingPropIvarEPN5clang16PseudoObjectExprE(ptr noundef nonnull align 8 dereferenceable(72) %0, ptr noundef nonnull %3)
  br label %11

11:                                               ; preds = %8, %9, %6
  %.0 = phi i1 [ %7, %6 ], [ %10, %9 ], [ false, %8 ]
  ret i1 %.0
}